target datalayout = "e-m:e-p270:32:32-p271:32:32-p272:64:64-i64:64-i128:128-f80:128-n8:16:32:64-S128"
target triple = "x86_64-pc-linux-gnu"

%struct.GinScanOpaqueData = type { ptr, %struct.GinState, ptr, i32, ptr, i32, i32, ptr, i8 }
%struct.GinState = type { ptr, i8, ptr, [32 x ptr], [32 x %struct.FmgrInfo], [32 x %struct.FmgrInfo], [32 x %struct.FmgrInfo], [32 x %struct.FmgrInfo], [32 x %struct.FmgrInfo], [32 x %struct.FmgrInfo], [32 x i8], [32 x i32] }
%struct.FmgrInfo = type { ptr, i32, i16, i8, i8, i8, ptr, ptr, ptr }
%struct.ItemPointerData = type { %struct.BlockIdData, i16 }
%struct.BlockIdData = type { i16, i16 }
%struct.GinScanKeyData = type { i32, i32, ptr, ptr, i32, ptr, i32, ptr, ptr, ptr, ptr, ptr, i32, i64, ptr, ptr, ptr, i16, i32, i16, i8, %struct.ItemPointerData, i8, i8, i8 }

; Function Attrs: inlinehint nounwind uwtable
define internal void @BlockIdSet(ptr noundef %0, i32 noundef %1) #4 {
  %3 = alloca ptr, align 8
  %4 = alloca i32, align 4
  store ptr %0, ptr %3, align 8
  store i32 %1, ptr %4, align 4
  %5 = load i32, ptr %4, align 4
  %6 = lshr i32 %5, 16
  %7 = trunc i32 %6 to i16
  %8 = load ptr, ptr %3, align 8
  %9 = getelementptr inbounds nuw %struct.BlockIdData, ptr %8, i32 0, i32 0
  store i16 %7, ptr %9, align 2
  %10 = load i32, ptr %4, align 4
  %11 = and i32 %10, 65535
  %12 = trunc i32 %11 to i16
  %13 = load ptr, ptr %3, align 8
  %14 = getelementptr inbounds nuw %struct.BlockIdData, ptr %13, i32 0, i32 1
  store i16 %12, ptr %14, align 2
  ret void
}

; Function Attrs: nounwind uwtable
define internal void @ginScanKeyAddHiddenEntry(ptr noundef %0, ptr noundef %1, i8 noundef signext %2) #0 {
  %4 = alloca ptr, align 8
  %5 = alloca ptr, align 8
  %6 = alloca i8, align 1
  %7 = alloca i32, align 4
  store ptr %0, ptr %4, align 8
  store ptr %1, ptr %5, align 8
  store i8 %2, ptr %6, align 1
  call void @llvm.lifetime.start.p0(i64 4, ptr %7) #8
  %8 = load ptr, ptr %5, align 8
  %9 = getelementptr inbounds nuw %struct.GinScanKeyData, ptr %8, i32 0, i32 0
  %10 = load i32, ptr %9, align 8
  %11 = add i32 %10, 1
  store i32 %11, ptr %9, align 8
  store i32 %10, ptr %7, align 4
  %12 = load ptr, ptr %4, align 8
  %13 = load ptr, ptr %5, align 8
  %14 = getelementptr inbounds nuw %struct.GinScanKeyData, ptr %13, i32 0, i32 19
  %15 = load i16, ptr %14, align 8
  %16 = load ptr, ptr %5, align 8
  %17 = getelementptr inbounds nuw %struct.GinScanKeyData, ptr %16, i32 0, i32 18
  %18 = load i32, ptr %17, align 4
  %19 = load i8, ptr %6, align 1
  %20 = call ptr @ginFillScanEntry(ptr noundef %12, i16 noundef zeroext %15, i16 noundef zeroext 0, i32 noundef %18, i64 noundef 0, i8 noundef signext %19, i1 noundef zeroext false, ptr noundef null)
  %21 = load ptr, ptr %5, align 8
  %22 = getelementptr inbounds nuw %struct.GinScanKeyData, ptr %21, i32 0, i32 2
  %23 = load ptr, ptr %22, align 8
  %24 = load i32, ptr %7, align 4
  %25 = sext i32 %24 to i64
  %26 = getelementptr inbounds ptr, ptr %23, i64 %25
  store ptr %20, ptr %26, align 8
  call void @llvm.lifetime.end.p0(i64 4, ptr %7) #8
  ret void
}

; Function Attrs: inlinehint nounwind uwtable
define internal void @ItemPointerSet(ptr noundef %0, i32 noundef %1, i16 noundef zeroext %2) #4 {
  %4 = alloca ptr, align 8
  %5 = alloca i32, align 4
  %6 = alloca i16, align 2
  store ptr %0, ptr %4, align 8
  store i32 %1, ptr %5, align 4
  store i16 %2, ptr %6, align 2
  %7 = load ptr, ptr %4, align 8
  %8 = getelementptr inbounds nuw %struct.ItemPointerData, ptr %7, i32 0, i32 0
  %9 = load i32, ptr %5, align 4
  call void @BlockIdSet(ptr noundef %8, i32 noundef %9)
  %10 = load i16, ptr %6, align 2
  %11 = load ptr, ptr %4, align 8
  %12 = getelementptr inbounds nuw %struct.ItemPointerData, ptr %11, i32 0, i32 1
  store i16 %10, ptr %12, align 2
  ret void
}

; Function Attrs: nounwind uwtable
define internal void @ginFillScanKey(ptr noundef %0, i16 noundef zeroext %1, i16 noundef zeroext %2, i32 noundef %3, i64 noundef %4, i32 noundef %5, ptr noundef %6, ptr noundef %7, ptr noundef %8, ptr noundef %9) #0 {
  %11 = alloca ptr, align 8
  %12 = alloca i16, align 2
  %13 = alloca i16, align 2
  %14 = alloca i32, align 4
  %15 = alloca i64, align 8
  %16 = alloca i32, align 4
  %17 = alloca ptr, align 8
  %18 = alloca ptr, align 8
  %19 = alloca ptr, align 8
  %20 = alloca ptr, align 8
  %21 = alloca ptr, align 8
  %22 = alloca ptr, align 8
  %23 = alloca i32, align 4
  %24 = alloca i64, align 8
  %25 = alloca i8, align 1
  %26 = alloca i8, align 1
  %27 = alloca ptr, align 8
  store ptr %0, ptr %11, align 8
  store i16 %1, ptr %12, align 2
  store i16 %2, ptr %13, align 2
  store i32 %3, ptr %14, align 4
  store i64 %4, ptr %15, align 8
  store i32 %5, ptr %16, align 4
  store ptr %6, ptr %17, align 8
  store ptr %7, ptr %18, align 8
  store ptr %8, ptr %19, align 8
  store ptr %9, ptr %20, align 8
  call void @llvm.lifetime.start.p0(i64 8, ptr %21) #8
  %28 = load ptr, ptr %11, align 8
  %29 = getelementptr inbounds nuw %struct.GinScanOpaqueData, ptr %28, i32 0, i32 2
  %30 = load ptr, ptr %29, align 8
  %31 = load ptr, ptr %11, align 8
  %32 = getelementptr inbounds nuw %struct.GinScanOpaqueData, ptr %31, i32 0, i32 3
  %33 = load i32, ptr %32, align 8
  %34 = add i32 %33, 1
  store i32 %34, ptr %32, align 8
  %35 = zext i32 %33 to i64
  %36 = getelementptr inbounds nuw %struct.GinScanKeyData, ptr %30, i64 %35
  store ptr %36, ptr %21, align 8
  call void @llvm.lifetime.start.p0(i64 8, ptr %22) #8
  %37 = load ptr, ptr %11, align 8
  %38 = getelementptr inbounds nuw %struct.GinScanOpaqueData, ptr %37, i32 0, i32 1
  store ptr %38, ptr %22, align 8
  call void @llvm.lifetime.start.p0(i64 4, ptr %23) #8
  %39 = load i32, ptr %16, align 4
  %40 = load ptr, ptr %21, align 8
  %41 = getelementptr inbounds nuw %struct.GinScanKeyData, ptr %40, i32 0, i32 0
  store i32 %39, ptr %41, align 8
  %42 = load i32, ptr %16, align 4
  %43 = load ptr, ptr %21, align 8
  %44 = getelementptr inbounds nuw %struct.GinScanKeyData, ptr %43, i32 0, i32 1
  store i32 %42, ptr %44, align 4
  %45 = load i32, ptr %16, align 4
  %46 = add i32 %45, 1
  %47 = zext i32 %46 to i64
  %48 = mul i64 8, %47
  %49 = call ptr @palloc(i64 noundef %48)
  %50 = load ptr, ptr %21, align 8
  %51 = getelementptr inbounds nuw %struct.GinScanKeyData, ptr %50, i32 0, i32 2
  store ptr %49, ptr %51, align 8
  %52 = load i32, ptr %16, align 4
  %53 = add i32 %52, 1
  %54 = zext i32 %53 to i64
  %55 = mul i64 1, %54
  %56 = call ptr @palloc0(i64 noundef %55)
  %57 = load ptr, ptr %21, align 8
  %58 = getelementptr inbounds nuw %struct.GinScanKeyData, ptr %57, i32 0, i32 7
  store ptr %56, ptr %58, align 8
  %59 = load i64, ptr %15, align 8
  %60 = load ptr, ptr %21, align 8
  %61 = getelementptr inbounds nuw %struct.GinScanKeyData, ptr %60, i32 0, i32 13
  store i64 %59, ptr %61, align 8
  %62 = load ptr, ptr %17, align 8
  %63 = load ptr, ptr %21, align 8
  %64 = getelementptr inbounds nuw %struct.GinScanKeyData, ptr %63, i32 0, i32 14
  store ptr %62, ptr %64, align 8
  %65 = load ptr, ptr %18, align 8
  %66 = load ptr, ptr %21, align 8
  %67 = getelementptr inbounds nuw %struct.GinScanKeyData, ptr %66, i32 0, i32 15
  store ptr %65, ptr %67, align 8
  %68 = load ptr, ptr %20, align 8
  %69 = load ptr, ptr %21, align 8
  %70 = getelementptr inbounds nuw %struct.GinScanKeyData, ptr %69, i32 0, i32 16
  store ptr %68, ptr %70, align 8
  %71 = load i16, ptr %13, align 2
  %72 = load ptr, ptr %21, align 8
  %73 = getelementptr inbounds nuw %struct.GinScanKeyData, ptr %72, i32 0, i32 17
  store i16 %71, ptr %73, align 8
  %74 = load i32, ptr %14, align 4
  %75 = load ptr, ptr %21, align 8
  %76 = getelementptr inbounds nuw %struct.GinScanKeyData, ptr %75, i32 0, i32 18
  store i32 %74, ptr %76, align 4
  %77 = load i16, ptr %12, align 2
  %78 = load ptr, ptr %21, align 8
  %79 = getelementptr inbounds nuw %struct.GinScanKeyData, ptr %78, i32 0, i32 19
  store i16 %77, ptr %79, align 8
  %80 = load i32, ptr %14, align 4
  %81 = icmp eq i32 %80, 2
  %82 = load ptr, ptr %21, align 8
  %83 = getelementptr inbounds nuw %struct.GinScanKeyData, ptr %82, i32 0, i32 20
  %84 = zext i1 %81 to i8
  store i8 %84, ptr %83, align 2
  %85 = load ptr, ptr %21, align 8
  %86 = getelementptr inbounds nuw %struct.GinScanKeyData, ptr %85, i32 0, i32 21
  call void @ItemPointerSet(ptr noundef %86, i32 noundef 0, i16 noundef zeroext 0)
  %87 = load ptr, ptr %21, align 8
  %88 = getelementptr inbounds nuw %struct.GinScanKeyData, ptr %87, i32 0, i32 22
  store i8 0, ptr %88, align 2
  %89 = load ptr, ptr %21, align 8
  %90 = getelementptr inbounds nuw %struct.GinScanKeyData, ptr %89, i32 0, i32 23
  store i8 0, ptr %90, align 1
  %91 = load ptr, ptr %21, align 8
  %92 = getelementptr inbounds nuw %struct.GinScanKeyData, ptr %91, i32 0, i32 24
  store i8 0, ptr %92, align 4
  %93 = load ptr, ptr %21, align 8
  %94 = getelementptr inbounds nuw %struct.GinScanKeyData, ptr %93, i32 0, i32 4
  store i32 0, ptr %94, align 8
  %95 = load ptr, ptr %21, align 8
  %96 = getelementptr inbounds nuw %struct.GinScanKeyData, ptr %95, i32 0, i32 6
  store i32 0, ptr %96, align 8
  %97 = load ptr, ptr %21, align 8
  %98 = getelementptr inbounds nuw %struct.GinScanKeyData, ptr %97, i32 0, i32 3
  store ptr null, ptr %98, align 8
  %99 = load ptr, ptr %21, align 8
  %100 = getelementptr inbounds nuw %struct.GinScanKeyData, ptr %99, i32 0, i32 5
  store ptr null, ptr %100, align 8
  %101 = load ptr, ptr %22, align 8
  %102 = load ptr, ptr %21, align 8
  call void @ginInitConsistentFunction(ptr noundef %101, ptr noundef %102)
  store i32 0, ptr %23, align 4
  br label %103

103:                                              ; preds = %170, %10
  %104 = load i32, ptr %23, align 4
  %105 = load i32, ptr %16, align 4
  %106 = icmp ult i32 %104, %105
  br i1 %106, label %107, label %173

107:                                              ; preds = %103
  call void @llvm.lifetime.start.p0(i64 8, ptr %24) #8
  call void @llvm.lifetime.start.p0(i64 1, ptr %25) #8
  call void @llvm.lifetime.start.p0(i64 1, ptr %26) #8
  call void @llvm.lifetime.start.p0(i64 8, ptr %27) #8
  %108 = load ptr, ptr %17, align 8
  %109 = load i32, ptr %23, align 4
  %110 = zext i32 %109 to i64
  %111 = getelementptr inbounds nuw i64, ptr %108, i64 %110
  %112 = load i64, ptr %111, align 8
  store i64 %112, ptr %24, align 8
  %113 = load ptr, ptr %18, align 8
  %114 = load i32, ptr %23, align 4
  %115 = zext i32 %114 to i64
  %116 = getelementptr inbounds nuw i8, ptr %113, i64 %115
  %117 = load i8, ptr %116, align 1
  store i8 %117, ptr %25, align 1
  %118 = load ptr, ptr %22, align 8
  %119 = getelementptr inbounds nuw %struct.GinState, ptr %118, i32 0, i32 10
  %120 = load i16, ptr %12, align 2
  %121 = zext i16 %120 to i32
  %122 = sub i32 %121, 1
  %123 = sext i32 %122 to i64
  %124 = getelementptr inbounds [32 x i8], ptr %119, i64 0, i64 %123
  %125 = load i8, ptr %124, align 1, !range !6, !noundef !7
  %126 = trunc i8 %125 to i1
  br i1 %126, label %127, label %138

127:                                              ; preds = %107
  %128 = load ptr, ptr %19, align 8
  %129 = icmp ne ptr %128, null
  br i1 %129, label %130, label %138

130:                                              ; preds = %127
  %131 = load ptr, ptr %19, align 8
  %132 = load i32, ptr %23, align 4
  %133 = zext i32 %132 to i64
  %134 = getelementptr inbounds nuw i8, ptr %131, i64 %133
  %135 = load i8, ptr %134, align 1, !range !6, !noundef !7
  %136 = trunc i8 %135 to i1
  %137 = zext i1 %136 to i32
  br label %139

138:                                              ; preds = %127, %107
  br label %139

139:                                              ; preds = %138, %130
  %140 = phi i32 [ %137, %130 ], [ 0, %138 ]
  %141 = icmp ne i32 %140, 0
  %142 = zext i1 %141 to i8
  store i8 %142, ptr %26, align 1
  %143 = load ptr, ptr %20, align 8
  %144 = icmp ne ptr %143, null
  br i1 %144, label %145, label %151

145:                                              ; preds = %139
  %146 = load ptr, ptr %20, align 8
  %147 = load i32, ptr %23, align 4
  %148 = zext i32 %147 to i64
  %149 = getelementptr inbounds nuw ptr, ptr %146, i64 %148
  %150 = load ptr, ptr %149, align 8
  br label %152

151:                                              ; preds = %139
  br label %152

152:                                              ; preds = %151, %145
  %153 = phi ptr [ %150, %145 ], [ null, %151 ]
  store ptr %153, ptr %27, align 8
  %154 = load ptr, ptr %11, align 8
  %155 = load i16, ptr %12, align 2
  %156 = load i16, ptr %13, align 2
  %157 = load i32, ptr %14, align 4
  %158 = load i64, ptr %24, align 8
  %159 = load i8, ptr %25, align 1
  %160 = load i8, ptr %26, align 1, !range !6, !noundef !7
  %161 = trunc i8 %160 to i1
  %162 = load ptr, ptr %27, align 8
  %163 = call ptr @ginFillScanEntry(ptr noundef %154, i16 noundef zeroext %155, i16 noundef zeroext %156, i32 noundef %157, i64 noundef %158, i8 noundef signext %159, i1 noundef zeroext %161, ptr noundef %162)
  %164 = load ptr, ptr %21, align 8
  %165 = getelementptr inbounds nuw %struct.GinScanKeyData, ptr %164, i32 0, i32 2
  %166 = load ptr, ptr %165, align 8
  %167 = load i32, ptr %23, align 4
  %168 = zext i32 %167 to i64
  %169 = getelementptr inbounds nuw ptr, ptr %166, i64 %168
  store ptr %163, ptr %169, align 8
  call void @llvm.lifetime.end.p0(i64 8, ptr %27) #8
  call void @llvm.lifetime.end.p0(i64 1, ptr %26) #8
  call void @llvm.lifetime.end.p0(i64 1, ptr %25) #8
  call void @llvm.lifetime.end.p0(i64 8, ptr %24) #8
  br label %170

170:                                              ; preds = %152
  %171 = load i32, ptr %23, align 4
  %172 = add i32 %171, 1
  store i32 %172, ptr %23, align 4
  br label %103, !llvm.loop !11

173:                                              ; preds = %103
  %174 = load i32, ptr %14, align 4
  %175 = icmp eq i32 %174, 1
  br i1 %175, label %176, label %179

176:                                              ; preds = %173
  %177 = load ptr, ptr %11, align 8
  %178 = load ptr, ptr %21, align 8
  call void @ginScanKeyAddHiddenEntry(ptr noundef %177, ptr noundef %178, i8 noundef signext 2)
  br label %186

179:                                              ; preds = %173
  %180 = load i32, ptr %14, align 4
  %181 = icmp eq i32 %180, 3
  br i1 %181, label %182, label %185

182:                                              ; preds = %179
  %183 = load ptr, ptr %11, align 8
  %184 = load ptr, ptr %21, align 8
  call void @ginScanKeyAddHiddenEntry(ptr noundef %183, ptr noundef %184, i8 noundef signext -1)
  br label %185

185:                                              ; preds = %182, %179
  br label %186

186:                                              ; preds = %185, %176
  call void @llvm.lifetime.end.p0(i64 4, ptr %23) #8
  call void @llvm.lifetime.end.p0(i64 8, ptr %22) #8
  call void @llvm.lifetime.end.p0(i64 8, ptr %21) #8
  ret void
}