; Function Attrs: nounwind uwtable
define internal fastcc void @ginFillScanKey(ptr noundef %0, i16 noundef zeroext %1, i16 noundef zeroext %2, i32 noundef %3, i64 noundef %4, i32 noundef %5, ptr noundef %6, ptr noundef %7, ptr noundef readonly captures(address_is_null) %8, ptr noundef %9) unnamed_addr #0 {
  %11 = getelementptr inbounds nuw i8, ptr %0, i64 9664
  %12 = load ptr, ptr %11, align 8
  %13 = getelementptr inbounds nuw i8, ptr %0, i64 9672
  %14 = load i32, ptr %13, align 8
  %15 = add i32 %14, 1
  store i32 %15, ptr %13, align 8
  %16 = zext i32 %14 to i64
  %17 = getelementptr inbounds nuw %struct.GinScanKeyData, ptr %12, i64 %16
  %18 = getelementptr inbounds nuw i8, ptr %0, i64 8
  store i32 %5, ptr %17, align 8
  %19 = getelementptr inbounds nuw i8, ptr %17, i64 4
  store i32 %5, ptr %19, align 4
  %20 = add i32 %5, 1
  %21 = zext i32 %20 to i64
  %22 = shl nuw nsw i64 %21, 3
  %23 = tail call ptr @palloc(i64 noundef %22) #7
  %24 = getelementptr inbounds nuw i8, ptr %17, i64 8
  store ptr %23, ptr %24, align 8
  %25 = tail call ptr @palloc0(i64 noundef %21) #7
  %26 = getelementptr inbounds nuw i8, ptr %17, i64 48
  store ptr %25, ptr %26, align 8
  %27 = getelementptr inbounds nuw i8, ptr %17, i64 96
  store i64 %4, ptr %27, align 8
  %28 = getelementptr inbounds nuw i8, ptr %17, i64 104
  store ptr %6, ptr %28, align 8
  %29 = getelementptr inbounds nuw i8, ptr %17, i64 112
  store ptr %7, ptr %29, align 8
  %30 = getelementptr inbounds nuw i8, ptr %17, i64 120
  store ptr %9, ptr %30, align 8
  %31 = getelementptr inbounds nuw i8, ptr %17, i64 128
  store i16 %2, ptr %31, align 8
  %32 = getelementptr inbounds nuw i8, ptr %17, i64 132
  store i32 %3, ptr %32, align 4
  %33 = getelementptr inbounds nuw i8, ptr %17, i64 136
  store i16 %1, ptr %33, align 8
  %34 = icmp eq i32 %3, 2
  %35 = getelementptr inbounds nuw i8, ptr %17, i64 138
  %36 = zext i1 %34 to i8
  store i8 %36, ptr %35, align 2
  %37 = getelementptr inbounds nuw i8, ptr %17, i64 140
  %38 = getelementptr inbounds nuw i8, ptr %17, i64 24
  store i32 0, ptr %38, align 8
  %39 = getelementptr inbounds nuw i8, ptr %17, i64 40
  store i32 0, ptr %39, align 8
  %40 = getelementptr inbounds nuw i8, ptr %17, i64 16
  store ptr null, ptr %40, align 8
  %41 = getelementptr inbounds nuw i8, ptr %17, i64 32
  store ptr null, ptr %41, align 8
  tail call void @llvm.memset.p0.i64(ptr noundef nonnull align 2 dereferenceable(9) %37, i8 0, i64 9, i1 false)
  tail call void @ginInitConsistentFunction(ptr noundef nonnull %18, ptr noundef nonnull %17) #7
  %.not73 = icmp eq i32 %5, 0
  br i1 %.not73, label %._crit_edge, label %.lr.ph

.lr.ph:                                           ; preds = %10
  %42 = getelementptr inbounds nuw i8, ptr %0, i64 9504
  %43 = zext i16 %1 to i64
  %44 = add nsw i64 %43, -1
  %45 = getelementptr inbounds [32 x i8], ptr %42, i64 0, i64 %44
  %.not74 = icmp eq ptr %8, null
  %.not = icmp eq ptr %9, null
  %wide.trip.count92 = zext i32 %5 to i64
  br i1 %.not74, label %.lr.ph.split.us, label %.lr.ph.split

.lr.ph.split.us:                                  ; preds = %.lr.ph
  br i1 %.not, label %.lr.ph.split.us.split.us, label %.lr.ph.split.us.split

.lr.ph.split.us.split.us:                         ; preds = %.lr.ph.split.us, %.lr.ph.split.us.split.us
  %indvars.iv89 = phi i64 [ %indvars.iv.next90, %.lr.ph.split.us.split.us ], [ 0, %.lr.ph.split.us ]
  %46 = getelementptr inbounds nuw i64, ptr %6, i64 %indvars.iv89
  %47 = load i64, ptr %46, align 8
  %48 = getelementptr inbounds nuw i8, ptr %7, i64 %indvars.iv89
  %49 = load i8, ptr %48, align 1
  %50 = tail call fastcc ptr @ginFillScanEntry(ptr noundef nonnull %0, i16 noundef zeroext %1, i16 noundef zeroext %2, i32 noundef %3, i64 noundef %47, i8 noundef signext %49, i1 noundef zeroext false, ptr noundef null)
  %51 = load ptr, ptr %24, align 8
  %52 = getelementptr inbounds nuw ptr, ptr %51, i64 %indvars.iv89
  store ptr %50, ptr %52, align 8
  %indvars.iv.next90 = add nuw nsw i64 %indvars.iv89, 1
  %exitcond93.not = icmp eq i64 %indvars.iv.next90, %wide.trip.count92
  br i1 %exitcond93.not, label %._crit_edge, label %.lr.ph.split.us.split.us, !llvm.loop !12

.lr.ph.split.us.split:                            ; preds = %.lr.ph.split.us, %.lr.ph.split.us.split
  %indvars.iv84 = phi i64 [ %indvars.iv.next85, %.lr.ph.split.us.split ], [ 0, %.lr.ph.split.us ]
  %53 = getelementptr inbounds nuw i64, ptr %6, i64 %indvars.iv84
  %54 = load i64, ptr %53, align 8
  %55 = getelementptr inbounds nuw i8, ptr %7, i64 %indvars.iv84
  %56 = load i8, ptr %55, align 1
  %57 = getelementptr inbounds nuw ptr, ptr %9, i64 %indvars.iv84
  %58 = load ptr, ptr %57, align 8
  %59 = tail call fastcc ptr @ginFillScanEntry(ptr noundef nonnull %0, i16 noundef zeroext %1, i16 noundef zeroext %2, i32 noundef %3, i64 noundef %54, i8 noundef signext %56, i1 noundef zeroext false, ptr noundef %58)
  %60 = load ptr, ptr %24, align 8
  %61 = getelementptr inbounds nuw ptr, ptr %60, i64 %indvars.iv84
  store ptr %59, ptr %61, align 8
  %indvars.iv.next85 = add nuw nsw i64 %indvars.iv84, 1
  %exitcond88.not = icmp eq i64 %indvars.iv.next85, %wide.trip.count92
  br i1 %exitcond88.not, label %._crit_edge, label %.lr.ph.split.us.split, !llvm.loop !12

.lr.ph.split:                                     ; preds = %.lr.ph
  br i1 %.not, label %.lr.ph.split.split.us, label %.lr.ph.split.split

.lr.ph.split.split.us:                            ; preds = %.lr.ph.split, %72
  %indvars.iv79 = phi i64 [ %indvars.iv.next80, %72 ], [ 0, %.lr.ph.split ]
  %62 = getelementptr inbounds nuw i64, ptr %6, i64 %indvars.iv79
  %63 = load i64, ptr %62, align 8
  %64 = getelementptr inbounds nuw i8, ptr %7, i64 %indvars.iv79
  %65 = load i8, ptr %64, align 1
  %66 = load i8, ptr %45, align 1, !range !6, !noundef !7
  %67 = trunc nuw i8 %66 to i1
  br i1 %67, label %68, label %72

68:                                               ; preds = %.lr.ph.split.split.us
  %69 = getelementptr inbounds nuw i8, ptr %8, i64 %indvars.iv79
  %70 = load i8, ptr %69, align 1, !range !6, !noundef !7
  %71 = icmp ne i8 %70, 0
  br label %72

72:                                               ; preds = %68, %.lr.ph.split.split.us
  %73 = phi i1 [ %71, %68 ], [ false, %.lr.ph.split.split.us ]
  %74 = tail call fastcc ptr @ginFillScanEntry(ptr noundef nonnull %0, i16 noundef zeroext %1, i16 noundef zeroext %2, i32 noundef %3, i64 noundef %63, i8 noundef signext %65, i1 noundef zeroext %73, ptr noundef null)
  %75 = load ptr, ptr %24, align 8
  %76 = getelementptr inbounds nuw ptr, ptr %75, i64 %indvars.iv79
  store ptr %74, ptr %76, align 8
  %indvars.iv.next80 = add nuw nsw i64 %indvars.iv79, 1
  %exitcond83.not = icmp eq i64 %indvars.iv.next80, %wide.trip.count92
  br i1 %exitcond83.not, label %._crit_edge, label %.lr.ph.split.split.us, !llvm.loop !12

.lr.ph.split.split:                               ; preds = %.lr.ph.split, %87
  %indvars.iv = phi i64 [ %indvars.iv.next, %87 ], [ 0, %.lr.ph.split ]
  %77 = getelementptr inbounds nuw i64, ptr %6, i64 %indvars.iv
  %78 = load i64, ptr %77, align 8
  %79 = getelementptr inbounds nuw i8, ptr %7, i64 %indvars.iv
  %80 = load i8, ptr %79, align 1
  %81 = load i8, ptr %45, align 1, !range !6, !noundef !7
  %82 = trunc nuw i8 %81 to i1
  br i1 %82, label %83, label %87

83:                                               ; preds = %.lr.ph.split.split
  %84 = getelementptr inbounds nuw i8, ptr %8, i64 %indvars.iv
  %85 = load i8, ptr %84, align 1, !range !6, !noundef !7
  %86 = icmp ne i8 %85, 0
  br label %87

87:                                               ; preds = %.lr.ph.split.split, %83
  %88 = phi i1 [ %86, %83 ], [ false, %.lr.ph.split.split ]
  %89 = getelementptr inbounds nuw ptr, ptr %9, i64 %indvars.iv
  %90 = load ptr, ptr %89, align 8
  %91 = tail call fastcc ptr @ginFillScanEntry(ptr noundef nonnull %0, i16 noundef zeroext %1, i16 noundef zeroext %2, i32 noundef %3, i64 noundef %78, i8 noundef signext %80, i1 noundef zeroext %88, ptr noundef %90)
  %92 = load ptr, ptr %24, align 8
  %93 = getelementptr inbounds nuw ptr, ptr %92, i64 %indvars.iv
  store ptr %91, ptr %93, align 8
  %indvars.iv.next = add nuw nsw i64 %indvars.iv, 1
  %exitcond.not = icmp eq i64 %indvars.iv.next, %wide.trip.count92
  br i1 %exitcond.not, label %._crit_edge, label %.lr.ph.split.split, !llvm.loop !12

._crit_edge:                                      ; preds = %87, %72, %.lr.ph.split.us.split, %.lr.ph.split.us.split.us, %10
  switch i32 %3, label %103 [
    i32 1, label %.sink.split
    i32 3, label %94
  ]

94:                                               ; preds = %._crit_edge
  br label %.sink.split

.sink.split:                                      ; preds = %._crit_edge, %94
  %.sink103 = phi i8 [ -1, %94 ], [ 2, %._crit_edge ]
  %95 = load i32, ptr %17, align 8
  %96 = add i32 %95, 1
  store i32 %96, ptr %17, align 8
  %97 = load i16, ptr %33, align 8
  %98 = load i32, ptr %32, align 4
  %99 = tail call fastcc ptr @ginFillScanEntry(ptr noundef nonnull %0, i16 noundef zeroext %97, i16 noundef zeroext 0, i32 noundef %98, i64 noundef 0, i8 noundef signext %.sink103, i1 noundef zeroext false, ptr noundef null)
  %100 = load ptr, ptr %24, align 8
  %101 = sext i32 %95 to i64
  %102 = getelementptr inbounds ptr, ptr %100, i64 %101
  store ptr %99, ptr %102, align 8
  br label %103

103:                                              ; preds = %.sink.split, %._crit_edge
  ret void
}